target datalayout = "e-m:e-p270:32:32-p271:32:32-p272:64:64-i64:64-i128:128-f80:128-n8:16:32:64-S128"
target triple = "x86_64-pc-linux-gnu"

@.str.22 = private unnamed_addr constant [8 x i8] c"UNKNOWN\00", align 1
@.str.29 = private unnamed_addr constant [4 x i8] c"OFF\00", align 1
@.str.30 = private unnamed_addr constant [5 x i8] c"GANG\00", align 1
@.str.31 = private unnamed_addr constant [7 x i8] c"WITHIN\00", align 1
@.str.32 = private unnamed_addr constant [12 x i8] c"GANG,CANCEL\00", align 1
@.str.33 = private unnamed_addr constant [13 x i8] c"GANG,REQUEUE\00", align 1
@.str.34 = private unnamed_addr constant [13 x i8] c"GANG,SUSPEND\00", align 1
@.str.35 = private unnamed_addr constant [13 x i8] c"GANG,UNKNOWN\00", align 1
@.str.36 = private unnamed_addr constant [14 x i8] c"WITHIN,CANCEL\00", align 1
@.str.37 = private unnamed_addr constant [15 x i8] c"WITHIN,REQUEUE\00", align 1
@.str.38 = private unnamed_addr constant [15 x i8] c"WITHIN,SUSPEND\00", align 1
@.str.39 = private unnamed_addr constant [15 x i8] c"WITHIN,UNKNOWN\00", align 1
@.str.40 = private unnamed_addr constant [7 x i8] c"CANCEL\00", align 1
@.str.41 = private unnamed_addr constant [8 x i8] c"REQUEUE\00", align 1
@.str.42 = private unnamed_addr constant [8 x i8] c"SUSPEND\00", align 1

; Function Attrs: nounwind uwtable
define dso_local ptr @preempt_mode_string(i16 noundef zeroext %0) #0 {
  %2 = alloca ptr, align 8
  %3 = alloca i16, align 2
  store i16 %0, ptr %3, align 2
  %4 = load i16, ptr %3, align 2
  %5 = zext i16 %4 to i32
  %6 = icmp eq i32 %5, 0
  br i1 %6, label %7, label %8

7:                                                ; preds = %1
  store ptr @.str.29, ptr %2, align 8
  br label %92

8:                                                ; preds = %1
  %9 = load i16, ptr %3, align 2
  %10 = zext i16 %9 to i32
  %11 = icmp eq i32 %10, 32768
  br i1 %11, label %12, label %13

12:                                               ; preds = %8
  store ptr @.str.30, ptr %2, align 8
  br label %92

13:                                               ; preds = %8
  %14 = load i16, ptr %3, align 2
  %15 = zext i16 %14 to i32
  %16 = icmp eq i32 %15, 16384
  br i1 %16, label %17, label %18

17:                                               ; preds = %13
  store ptr @.str.31, ptr %2, align 8
  br label %92

18:                                               ; preds = %13
  %19 = load i16, ptr %3, align 2
  %20 = zext i16 %19 to i32
  %21 = and i32 %20, 32768
  %22 = icmp ne i32 %21, 0
  br i1 %22, label %23, label %45

23:                                               ; preds = %18
  %24 = load i16, ptr %3, align 2
  %25 = zext i16 %24 to i32
  %26 = and i32 %25, -32769
  %27 = trunc i32 %26 to i16
  store i16 %27, ptr %3, align 2
  %28 = load i16, ptr %3, align 2
  %29 = zext i16 %28 to i32
  %30 = icmp eq i32 %29, 8
  br i1 %30, label %31, label %32

31:                                               ; preds = %23
  store ptr @.str.32, ptr %2, align 8
  br label %92

32:                                               ; preds = %23
  %33 = load i16, ptr %3, align 2
  %34 = zext i16 %33 to i32
  %35 = icmp eq i32 %34, 2
  br i1 %35, label %36, label %37

36:                                               ; preds = %32
  store ptr @.str.33, ptr %2, align 8
  br label %92

37:                                               ; preds = %32
  %38 = load i16, ptr %3, align 2
  %39 = zext i16 %38 to i32
  %40 = icmp eq i32 %39, 1
  br i1 %40, label %41, label %42

41:                                               ; preds = %37
  store ptr @.str.34, ptr %2, align 8
  br label %92

42:                                               ; preds = %37
  br label %43

43:                                               ; preds = %42
  br label %44

44:                                               ; preds = %43
  store ptr @.str.35, ptr %2, align 8
  br label %92

45:                                               ; preds = %18
  %46 = load i16, ptr %3, align 2
  %47 = zext i16 %46 to i32
  %48 = and i32 %47, 16384
  %49 = icmp ne i32 %48, 0
  br i1 %49, label %50, label %72

50:                                               ; preds = %45
  %51 = load i16, ptr %3, align 2
  %52 = zext i16 %51 to i32
  %53 = and i32 %52, -16385
  %54 = trunc i32 %53 to i16
  store i16 %54, ptr %3, align 2
  %55 = load i16, ptr %3, align 2
  %56 = zext i16 %55 to i32
  %57 = icmp eq i32 %56, 8
  br i1 %57, label %58, label %59

58:                                               ; preds = %50
  store ptr @.str.36, ptr %2, align 8
  br label %92

59:                                               ; preds = %50
  %60 = load i16, ptr %3, align 2
  %61 = zext i16 %60 to i32
  %62 = icmp eq i32 %61, 2
  br i1 %62, label %63, label %64

63:                                               ; preds = %59
  store ptr @.str.37, ptr %2, align 8
  br label %92

64:                                               ; preds = %59
  %65 = load i16, ptr %3, align 2
  %66 = zext i16 %65 to i32
  %67 = icmp eq i32 %66, 1
  br i1 %67, label %68, label %69

68:                                               ; preds = %64
  store ptr @.str.38, ptr %2, align 8
  br label %92

69:                                               ; preds = %64
  br label %70

70:                                               ; preds = %69
  br label %71

71:                                               ; preds = %70
  store ptr @.str.39, ptr %2, align 8
  br label %92

72:                                               ; preds = %45
  %73 = load i16, ptr %3, align 2
  %74 = zext i16 %73 to i32
  %75 = icmp eq i32 %74, 8
  br i1 %75, label %76, label %77

76:                                               ; preds = %72
  store ptr @.str.40, ptr %2, align 8
  br label %92

77:                                               ; preds = %72
  %78 = load i16, ptr %3, align 2
  %79 = zext i16 %78 to i32
  %80 = icmp eq i32 %79, 2
  br i1 %80, label %81, label %82

81:                                               ; preds = %77
  store ptr @.str.41, ptr %2, align 8
  br label %92

82:                                               ; preds = %77
  %83 = load i16, ptr %3, align 2
  %84 = zext i16 %83 to i32
  %85 = icmp eq i32 %84, 1
  br i1 %85, label %86, label %87

86:                                               ; preds = %82
  store ptr @.str.42, ptr %2, align 8
  br label %92

87:                                               ; preds = %82
  br label %88

88:                                               ; preds = %87
  br label %89

89:                                               ; preds = %88
  br label %90

90:                                               ; preds = %89
  br label %91

91:                                               ; preds = %90
  store ptr @.str.22, ptr %2, align 8
  br label %92

92:                                               ; preds = %91, %86, %81, %76, %71, %68, %63, %58, %44, %41, %36, %31, %17, %12, %7
  %93 = load ptr, ptr %2, align 8
  ret ptr %93
}