; Function Attrs: mustprogress nofree norecurse nosync nounwind willreturn memory(none) uwtable
define dso_local noundef nonnull ptr @preempt_mode_string(i16 noundef zeroext %0) #0 {
  switch i16 %0, label %4 [
    i16 0, label %20
    i16 -32768, label %2
    i16 16384, label %3
  ]

2:                                                ; preds = %1
  br label %20

3:                                                ; preds = %1
  br label %20

4:                                                ; preds = %1
  %.not = icmp sgt i16 %0, -1
  br i1 %.not, label %10, label %5

5:                                                ; preds = %4
  %6 = and i16 %0, 32767
  switch i16 %6, label %9 [
    i16 8, label %20
    i16 2, label %7
    i16 1, label %8
  ]

7:                                                ; preds = %5
  br label %20

8:                                                ; preds = %5
  br label %20

9:                                                ; preds = %5
  br label %20

10:                                               ; preds = %4
  %.not19 = icmp samesign ult i16 %0, 16384
  br i1 %.not19, label %16, label %11

11:                                               ; preds = %10
  %12 = and i16 %0, 16383
  switch i16 %12, label %15 [
    i16 8, label %20
    i16 2, label %13
    i16 1, label %14
  ]

13:                                               ; preds = %11
  br label %20

14:                                               ; preds = %11
  br label %20

15:                                               ; preds = %11
  br label %20

16:                                               ; preds = %10
  switch i16 %0, label %19 [
    i16 8, label %20
    i16 2, label %17
    i16 1, label %18
  ]

17:                                               ; preds = %16
  br label %20

18:                                               ; preds = %16
  br label %20

19:                                               ; preds = %16
  br label %20

20:                                               ; preds = %16, %11, %5, %1, %19, %18, %17, %15, %14, %13, %9, %8, %7, %3, %2
  %.0 = phi ptr [ @.str.30, %2 ], [ @.str.31, %3 ], [ @.str.33, %7 ], [ @.str.34, %8 ], [ @.str.35, %9 ], [ @.str.37, %13 ], [ @.str.38, %14 ], [ @.str.39, %15 ], [ @.str.41, %17 ], [ @.str.42, %18 ], [ @.str.22, %19 ], [ @.str.29, %1 ], [ @.str.32, %5 ], [ @.str.36, %11 ], [ @.str.40, %16 ]
  ret ptr %.0
}